target datalayout = "e-m:e-p270:32:32-p271:32:32-p272:64:64-i64:64-i128:128-f80:128-n8:16:32:64-S128"
target triple = "x86_64-pc-linux-gnu"

%struct.default_format_config = type { i32, i32 }

@.str.1 = private unnamed_addr constant [1 x i8] zeroinitializer, align 1
@git_gettext_enabled = external global i32, align 4
@.str.149 = private unnamed_addr constant [28 x i8] c"unknown hash algorithm '%s'\00", align 1
@.str.152 = private unnamed_addr constant [32 x i8] c"unknown ref storage format '%s'\00", align 1
@.str.153 = private unnamed_addr constant [25 x i8] c"init.defaultobjectformat\00", align 1
@.str.154 = private unnamed_addr constant [22 x i8] c"init.defaultrefformat\00", align 1

; Function Attrs: inlinehint nounwind uwtable
define internal ptr @_(ptr noundef %0) #2 {
  %2 = alloca ptr, align 8
  %3 = alloca ptr, align 8
  store ptr %0, ptr %3, align 8, !tbaa !4
  %4 = load ptr, ptr %3, align 8, !tbaa !4
  %5 = load i8, ptr %4, align 1, !tbaa !13
  %6 = icmp ne i8 %5, 0
  br i1 %6, label %8, label %7

7:                                                ; preds = %1
  store ptr @.str.1, ptr %2, align 8
  br label %16

8:                                                ; preds = %1
  %9 = load i32, ptr @git_gettext_enabled, align 4, !tbaa !9
  %10 = icmp ne i32 %9, 0
  br i1 %10, label %13, label %11

11:                                               ; preds = %8
  %12 = load ptr, ptr %3, align 8, !tbaa !4
  store ptr %12, ptr %2, align 8
  br label %16

13:                                               ; preds = %8
  %14 = load ptr, ptr %3, align 8, !tbaa !4
  %15 = call ptr @dcgettext(ptr noundef null, ptr noundef %14, i32 noundef 5) #13
  store ptr %15, ptr %2, align 8
  br label %16

16:                                               ; preds = %13, %11, %7
  %17 = load ptr, ptr %2, align 8
  ret ptr %17
}

; Function Attrs: nounwind uwtable
define internal i32 @read_default_format_config(ptr noundef %0, ptr noundef %1, ptr noundef %2, ptr noundef %3) #0 {
  %5 = alloca ptr, align 8
  %6 = alloca ptr, align 8
  %7 = alloca ptr, align 8
  %8 = alloca ptr, align 8
  %9 = alloca ptr, align 8
  %10 = alloca ptr, align 8
  %11 = alloca i32, align 4
  store ptr %0, ptr %5, align 8, !tbaa !4
  store ptr %1, ptr %6, align 8, !tbaa !4
  store ptr %2, ptr %7, align 8, !tbaa !53
  store ptr %3, ptr %8, align 8, !tbaa !55
  call void @llvm.lifetime.start.p0(i64 8, ptr %9) #13
  %12 = load ptr, ptr %8, align 8, !tbaa !55
  store ptr %12, ptr %9, align 8, !tbaa !131
  call void @llvm.lifetime.start.p0(i64 8, ptr %10) #13
  store ptr null, ptr %10, align 8, !tbaa !4
  call void @llvm.lifetime.start.p0(i64 4, ptr %11) #13
  %13 = load ptr, ptr %5, align 8, !tbaa !4
  %14 = call i32 @strcmp(ptr noundef %13, ptr noundef @.str.153) #14
  %15 = icmp ne i32 %14, 0
  br i1 %15, label %36, label %16

16:                                               ; preds = %4
  %17 = load ptr, ptr %5, align 8, !tbaa !4
  %18 = load ptr, ptr %6, align 8, !tbaa !4
  %19 = call i32 @git_config_string(ptr noundef %10, ptr noundef %17, ptr noundef %18)
  store i32 %19, ptr %11, align 4, !tbaa !9
  %20 = load i32, ptr %11, align 4, !tbaa !9
  %21 = icmp ne i32 %20, 0
  br i1 %21, label %22, label %23

22:                                               ; preds = %16
  br label %61

23:                                               ; preds = %16
  %24 = load ptr, ptr %10, align 8, !tbaa !4
  %25 = call i32 @hash_algo_by_name(ptr noundef %24)
  %26 = load ptr, ptr %9, align 8, !tbaa !131
  %27 = getelementptr inbounds nuw %struct.default_format_config, ptr %26, i32 0, i32 0
  store i32 %25, ptr %27, align 4, !tbaa !116
  %28 = load ptr, ptr %9, align 8, !tbaa !131
  %29 = getelementptr inbounds nuw %struct.default_format_config, ptr %28, i32 0, i32 0
  %30 = load i32, ptr %29, align 4, !tbaa !116
  %31 = icmp eq i32 %30, 0
  br i1 %31, label %32, label %35

32:                                               ; preds = %23
  %33 = call ptr @_(ptr noundef @.str.149)
  %34 = load ptr, ptr %10, align 8, !tbaa !4
  call void (ptr, ...) @warning(ptr noundef %33, ptr noundef %34)
  br label %35

35:                                               ; preds = %32, %23
  br label %61

36:                                               ; preds = %4
  %37 = load ptr, ptr %5, align 8, !tbaa !4
  %38 = call i32 @strcmp(ptr noundef %37, ptr noundef @.str.154) #14
  %39 = icmp ne i32 %38, 0
  br i1 %39, label %60, label %40

40:                                               ; preds = %36
  %41 = load ptr, ptr %5, align 8, !tbaa !4
  %42 = load ptr, ptr %6, align 8, !tbaa !4
  %43 = call i32 @git_config_string(ptr noundef %10, ptr noundef %41, ptr noundef %42)
  store i32 %43, ptr %11, align 4, !tbaa !9
  %44 = load i32, ptr %11, align 4, !tbaa !9
  %45 = icmp ne i32 %44, 0
  br i1 %45, label %46, label %47

46:                                               ; preds = %40
  br label %61

47:                                               ; preds = %40
  %48 = load ptr, ptr %10, align 8, !tbaa !4
  %49 = call i32 @ref_storage_format_by_name(ptr noundef %48)
  %50 = load ptr, ptr %9, align 8, !tbaa !131
  %51 = getelementptr inbounds nuw %struct.default_format_config, ptr %50, i32 0, i32 1
  store i32 %49, ptr %51, align 4, !tbaa !118
  %52 = load ptr, ptr %9, align 8, !tbaa !131
  %53 = getelementptr inbounds nuw %struct.default_format_config, ptr %52, i32 0, i32 1
  %54 = load i32, ptr %53, align 4, !tbaa !118
  %55 = icmp eq i32 %54, 0
  br i1 %55, label %56, label %59

56:                                               ; preds = %47
  %57 = call ptr @_(ptr noundef @.str.152)
  %58 = load ptr, ptr %10, align 8, !tbaa !4
  call void (ptr, ...) @warning(ptr noundef %57, ptr noundef %58)
  br label %59

59:                                               ; preds = %56, %47
  br label %61

60:                                               ; preds = %36
  store i32 0, ptr %11, align 4, !tbaa !9
  br label %61

61:                                               ; preds = %60, %59, %46, %35, %22
  %62 = load ptr, ptr %10, align 8, !tbaa !4
  call void @free(ptr noundef %62) #13
  %63 = load i32, ptr %11, align 4, !tbaa !9
  call void @llvm.lifetime.end.p0(i64 4, ptr %11) #13
  call void @llvm.lifetime.end.p0(i64 8, ptr %10) #13
  call void @llvm.lifetime.end.p0(i64 8, ptr %9) #13
  ret i32 %63
}