; Function Attrs: nounwind uwtable
define internal i32 @read_default_format_config(ptr noundef %0, ptr noundef %1, ptr readnone captures(none) %2, ptr noundef writeonly captures(none) %3) #0 {
  %5 = alloca ptr, align 8
  call void @llvm.lifetime.start.p0(i64 8, ptr nonnull %5) #25
  store ptr null, ptr %5, align 8, !tbaa !58
  %6 = tail call i32 @strcmp(ptr noundef nonnull dereferenceable(1) %0, ptr noundef nonnull dereferenceable(25) @.str.153) #24
  %.not = icmp eq i32 %6, 0
  br i1 %.not, label %7, label %15

7:                                                ; preds = %4
  %8 = call i32 @git_config_string(ptr noundef nonnull %5, ptr noundef nonnull %0, ptr noundef %1) #25
  %.not16 = icmp eq i32 %8, 0
  br i1 %.not16, label %9, label %28

9:                                                ; preds = %7
  %10 = load ptr, ptr %5, align 8, !tbaa !58
  %11 = call i32 @hash_algo_by_name(ptr noundef %10) #25
  store i32 %11, ptr %3, align 4, !tbaa !104
  %12 = icmp eq i32 %11, 0
  br i1 %12, label %13, label %28

13:                                               ; preds = %9
  %14 = load i32, ptr @git_gettext_enabled, align 4, !tbaa !7
  %.not4.i = icmp eq i32 %14, 0
  br i1 %.not4.i, label %.sink.split, label %.sink.split.sink.split

15:                                               ; preds = %4
  %16 = tail call i32 @strcmp(ptr noundef nonnull dereferenceable(1) %0, ptr noundef nonnull dereferenceable(22) @.str.154) #24
  %.not17 = icmp eq i32 %16, 0
  br i1 %.not17, label %17, label %28

17:                                               ; preds = %15
  %18 = call i32 @git_config_string(ptr noundef nonnull %5, ptr noundef nonnull %0, ptr noundef %1) #25
  %.not18 = icmp eq i32 %18, 0
  br i1 %.not18, label %19, label %28

19:                                               ; preds = %17
  %20 = load ptr, ptr %5, align 8, !tbaa !58
  %21 = call i32 @ref_storage_format_by_name(ptr noundef %20) #25
  %22 = getelementptr inbounds nuw i8, ptr %3, i64 4
  store i32 %21, ptr %22, align 4, !tbaa !106
  %23 = icmp eq i32 %21, 0
  br i1 %23, label %24, label %28

24:                                               ; preds = %19
  %25 = load i32, ptr @git_gettext_enabled, align 4, !tbaa !7
  %.not4.i19 = icmp eq i32 %25, 0
  br i1 %.not4.i19, label %.sink.split, label %.sink.split.sink.split

.sink.split.sink.split:                           ; preds = %24, %13
  %.str.152.sink = phi ptr [ @.str.149, %13 ], [ @.str.152, %24 ]
  %26 = call ptr @dcgettext(ptr noundef null, ptr noundef nonnull %.str.152.sink, i32 noundef 5) #25
  br label %.sink.split

.sink.split:                                      ; preds = %.sink.split.sink.split, %24, %13
  %.0.i20.sink = phi ptr [ @.str.149, %13 ], [ @.str.152, %24 ], [ %26, %.sink.split.sink.split ]
  %27 = load ptr, ptr %5, align 8, !tbaa !58
  call void (ptr, ...) @warning(ptr noundef %.0.i20.sink, ptr noundef %27) #25
  br label %28

28:                                               ; preds = %.sink.split, %15, %19, %17, %9, %7
  %.0 = phi i32 [ %18, %17 ], [ 0, %19 ], [ %8, %7 ], [ 0, %9 ], [ 0, %15 ], [ 0, %.sink.split ]
  %29 = load ptr, ptr %5, align 8, !tbaa !58
  call void @free(ptr noundef %29) #25
  call void @llvm.lifetime.end.p0(i64 8, ptr nonnull %5) #25
  ret i32 %.0
}